(dp1
S'files'
p2
(dp3
S'_Users_dimitris_PycharmProjects_ChessPuzzlerBackend_Application_chess_game_importer'
p4
(dp5
S'index'
p6
(dp7
S'html_filename'
p8
S'_Users_dimitris_PycharmProjects_ChessPuzzlerBackend_Application_chess_game_importer.html'
p9
sS'name'
p10
S'/Users/dimitris/PycharmProjects/ChessPuzzlerBackend/Application/chess_game_importer'
p11
sS'nums'
p12
ccopy_reg
_reconstructor
p13
(ccoverage.results
Numbers
p14
c__builtin__
object
p15
NtRp16
(dp17
S'n_files'
p18
I1
sS'n_branches'
p19
I6
sS'n_statements'
p20
I31
sS'n_excluded'
p21
I0
sS'n_partial_branches'
p22
I0
sS'n_missing'
p23
I15
sS'n_missing_branches'
p24
I0
sbssS'hash'
p25
S'lF\x0eGoK\xc8\xaa\x81\xdci1&$6>'
p26
ssS'_Applications_PyCharm CE_app_Contents_helpers_pydev__pydev_imps__pydev_pluginbase'
p27
(dp28
S'index'
p29
(dp30
S'html_filename'
p31
S'_Applications_PyCharm CE_app_Contents_helpers_pydev__pydev_imps__pydev_pluginbase.html'
p32
sS'name'
p33
S'/Applications/PyCharm CE.app/Contents/helpers/pydev/_pydev_imps/_pydev_pluginbase'
p34
sS'nums'
p35
g13
(g14
g15
NtRp36
(dp37
g18
I1
sg19
I93
sg20
I257
sg21
I0
sg22
I9
sg23
I231
sg24
I79
sbssS'hash'
p38
S'YE\xbdi\x9a\xecE\x8a\xb0\xa1\xc9\xef\xdb\xf99,'
p39
ssS'test_configuration'
p40
(dp41
S'index'
p42
(dp43
S'html_filename'
p44
S'test_configuration.html'
p45
sS'name'
p46
S'test_configuration'
p47
sS'nums'
p48
g13
(g14
g15
NtRp49
(dp50
g18
I1
sg19
I0
sg20
I6
sg21
I0
sg22
I0
sg23
I0
sg24
I0
sbssS'hash'
p51
S'\x8e#.\xa7[D\xfa\xbf\x89\x83d\x97\x00\x94\xa4G'
p52
ssS'_Users_dimitris_PycharmProjects_ChessPuzzlerBackend_Application_wtharvey_factory'
p53
(dp54
S'index'
p55
(dp56
S'html_filename'
p57
S'_Users_dimitris_PycharmProjects_ChessPuzzlerBackend_Application_wtharvey_factory.html'
p58
sS'name'
p59
S'/Users/dimitris/PycharmProjects/ChessPuzzlerBackend/Application/wtharvey_factory'
p60
sS'nums'
p61
g13
(g14
g15
NtRp62
(dp63
g18
I1
sg19
I0
sg20
I10
sg21
I0
sg22
I0
sg23
I5
sg24
I0
sbssS'hash'
p64
S'v\x17\xa8\xb9D\xf0\r\xde\xa5h\x85~\xd8F\xa2.'
p65
ssS'chess_game_importer_tests'
p66
(dp67
g6
(dp68
g8
S'chess_game_importer_tests.html'
p69
sg10
S'chess_game_importer_tests'
p70
sg12
g13
(g14
g15
NtRp71
(dp72
g18
I1
sg19
I0
sg20
I47
sg21
I0
sg22
I0
sg23
I13
sg24
I0
sbssg25
S'\xb9\x0f\x19<\x02\xafE)\xbd\xfb\x1d{\xa4\xb2]w'
p73
ssS'_Users_dimitris_PycharmProjects_ChessPuzzlerBackend_Application_models'
p74
(dp75
S'index'
p76
(dp77
g8
S'_Users_dimitris_PycharmProjects_ChessPuzzlerBackend_Application_models.html'
p78
sg10
S'/Users/dimitris/PycharmProjects/ChessPuzzlerBackend/Application/models'
p79
sg12
g13
(g14
g15
NtRp80
(dp81
g18
I1
sg19
I0
sg20
I22
sg21
I0
sg22
I0
sg23
I16
sg24
I0
sbssS'hash'
p82
S'\x8e\x11\x18d\x02\xcb\x18\xfc7b\x03\x07\xf0\xd8\x8a"'
p83
ssS'_Users_dimitris_PycharmProjects_ChessPuzzlerBackend_Application_importer_states'
p84
(dp85
S'index'
p86
(dp87
S'html_filename'
p88
S'_Users_dimitris_PycharmProjects_ChessPuzzlerBackend_Application_importer_states.html'
p89
sS'name'
p90
S'/Users/dimitris/PycharmProjects/ChessPuzzlerBackend/Application/importer_states'
p91
sS'nums'
p92
g13
(g14
g15
NtRp93
(dp94
g18
I1
sg19
I2
sg20
I35
sg21
I0
sg22
I1
sg23
I17
sg24
I1
sbssS'hash'
p95
S'\xe1\xf2m\x99[\xcd\xad\xd2\\\xbb\xdb\xf8\x91\xdeF5'
p96
ssS'wtharvey_importer_tests'
p97
(dp98
S'index'
p99
(dp100
g88
S'wtharvey_importer_tests.html'
p101
sg90
S'wtharvey_importer_tests'
p102
sg92
g13
(g14
g15
NtRp103
(dp104
g18
I1
sg19
I0
sg20
I36
sg21
I0
sg22
I0
sg23
I12
sg24
I0
sbssS'hash'
p105
S'\x11\xae\xd7\xf8\x84/e\xcc\xbf\x87\xf9\xa9\xb2\xa2\x08I'
p106
ssS'_Users_dimitris_PycharmProjects_ChessPuzzlerBackend_Application_wtharvey_importer'
p107
(dp108
S'index'
p109
(dp110
g88
S'_Users_dimitris_PycharmProjects_ChessPuzzlerBackend_Application_wtharvey_importer.html'
p111
sg90
S'/Users/dimitris/PycharmProjects/ChessPuzzlerBackend/Application/wtharvey_importer'
p112
sg92
g13
(g14
g15
NtRp113
(dp114
g18
I1
sg19
I6
sg20
I30
sg21
I0
sg22
I0
sg23
I14
sg24
I0
sbssS'hash'
p115
S'\xb4jM\x0f!\xb8\xfdoL\xe0P\xeb\xc2\x91\xdd\x0f'
p116
sssS'version'
p117
S'3.7.1'
p118
sS'settings'
p119
S'\x98C\xae\x16Y\x0b;\xd3\xaa\x853p\x19*\xf2\xe1'
p120
sS'format'
p121
I1
s.