(dp1
S'files'
p2
(dp3
S'_Users_dimitris_PycharmProjects_ChessPuzzlerBackend_Application_chess_game_importer'
p4
(dp5
S'index'
p6
(dp7
S'html_filename'
p8
S'_Users_dimitris_PycharmProjects_ChessPuzzlerBackend_Application_chess_game_importer.html'
p9
sS'name'
p10
S'/Users/dimitris/PycharmProjects/ChessPuzzlerBackend/Application/chess_game_importer'
p11
sS'nums'
p12
ccopy_reg
_reconstructor
p13
(ccoverage.results
Numbers
p14
c__builtin__
object
p15
NtRp16
(dp17
S'n_files'
p18
I1
sS'n_branches'
p19
I6
sS'n_statements'
p20
I30
sS'n_excluded'
p21
I0
sS'n_partial_branches'
p22
I0
sS'n_missing'
p23
I14
sS'n_missing_branches'
p24
I0
sbssS'hash'
p25
S']\xb4\x00\x11a7\x87\x03@86a\xfc\x11\xbd\xe3'
p26
ssS'_Applications_PyCharm CE_app_Contents_helpers_pydev__pydev_imps__pydev_pluginbase'
p27
(dp28
S'index'
p29
(dp30
S'html_filename'
p31
S'_Applications_PyCharm CE_app_Contents_helpers_pydev__pydev_imps__pydev_pluginbase.html'
p32
sS'name'
p33
S'/Applications/PyCharm CE.app/Contents/helpers/pydev/_pydev_imps/_pydev_pluginbase'
p34
sS'nums'
p35
g13
(g14
g15
NtRp36
(dp37
g18
I1
sg19
I93
sg20
I257
sg21
I0
sg22
I9
sg23
I231
sg24
I79
sbssS'hash'
p38
S'YE\xbdi\x9a\xecE\x8a\xb0\xa1\xc9\xef\xdb\xf99,'
p39
ssS'test_configuration'
p40
(dp41
S'index'
p42
(dp43
S'html_filename'
p44
S'test_configuration.html'
p45
sS'name'
p46
S'test_configuration'
p47
sS'nums'
p48
g13
(g14
g15
NtRp49
(dp50
g18
I1
sg19
I0
sg20
I6
sg21
I0
sg22
I0
sg23
I0
sg24
I0
sbssS'hash'
p51
S'\x8e#.\xa7[D\xfa\xbf\x89\x83d\x97\x00\x94\xa4G'
p52
ssS'_Users_dimitris_PycharmProjects_ChessPuzzlerBackend_Application_wtharvey_factory'
p53
(dp54
S'index'
p55
(dp56
S'html_filename'
p57
S'_Users_dimitris_PycharmProjects_ChessPuzzlerBackend_Application_wtharvey_factory.html'
p58
sS'name'
p59
S'/Users/dimitris/PycharmProjects/ChessPuzzlerBackend/Application/wtharvey_factory'
p60
sS'nums'
p61
g13
(g14
g15
NtRp62
(dp63
g18
I1
sg19
I0
sg20
I10
sg21
I0
sg22
I0
sg23
I5
sg24
I0
sbssS'hash'
p64
S'v\x17\xa8\xb9D\xf0\r\xde\xa5h\x85~\xd8F\xa2.'
p65
ssS'chess_game_importer_tests'
p66
(dp67
g6
(dp68
g8
S'chess_game_importer_tests.html'
p69
sg10
g66
sg12
g13
(g14
g15
NtRp70
(dp71
g18
I1
sg19
I0
sg20
I36
sg21
I0
sg22
I0
sg23
I12
sg24
I0
sbssg25
S'T2\xbe|\xba\x1f\xf3)@p*Q\xb0\x1c\x1b\x86'
p72
ssS'_Users_dimitris_PycharmProjects_ChessPuzzlerBackend_Application_models'
p73
(dp74
S'index'
p75
(dp76
S'html_filename'
p77
S'_Users_dimitris_PycharmProjects_ChessPuzzlerBackend_Application_models.html'
p78
sS'name'
p79
S'/Users/dimitris/PycharmProjects/ChessPuzzlerBackend/Application/models'
p80
sS'nums'
p81
g13
(g14
g15
NtRp82
(dp83
g18
I1
sg19
I0
sg20
I17
sg21
I0
sg22
I0
sg23
I12
sg24
I0
sbssS'hash'
p84
S'\x97\xccu\xa8P>Z2\x9e\xbea\xf3C\xf3[\xc9'
p85
ssS'_Users_dimitris_PycharmProjects_ChessPuzzlerBackend_Application_importer_states'
p86
(dp87
S'index'
p88
(dp89
S'html_filename'
p90
S'_Users_dimitris_PycharmProjects_ChessPuzzlerBackend_Application_importer_states.html'
p91
sS'name'
p92
S'/Users/dimitris/PycharmProjects/ChessPuzzlerBackend/Application/importer_states'
p93
sS'nums'
p94
g13
(g14
g15
NtRp95
(dp96
g18
I1
sg19
I2
sg20
I35
sg21
I0
sg22
I1
sg23
I17
sg24
I1
sbssS'hash'
p97
S'\xe1\xf2m\x99[\xcd\xad\xd2\\\xbb\xdb\xf8\x91\xdeF5'
p98
ssS'wtharvey_importer_tests'
p99
(dp100
S'index'
p101
(dp102
g90
S'wtharvey_importer_tests.html'
p103
sg92
S'wtharvey_importer_tests'
p104
sg94
g13
(g14
g15
NtRp105
(dp106
g18
I1
sg19
I0
sg20
I36
sg21
I0
sg22
I0
sg23
I12
sg24
I0
sbssS'hash'
p107
S'\x11\xae\xd7\xf8\x84/e\xcc\xbf\x87\xf9\xa9\xb2\xa2\x08I'
p108
ssS'_Users_dimitris_PycharmProjects_ChessPuzzlerBackend_Application_wtharvey_importer'
p109
(dp110
S'index'
p111
(dp112
g90
S'_Users_dimitris_PycharmProjects_ChessPuzzlerBackend_Application_wtharvey_importer.html'
p113
sg92
S'/Users/dimitris/PycharmProjects/ChessPuzzlerBackend/Application/wtharvey_importer'
p114
sg94
g13
(g14
g15
NtRp115
(dp116
g18
I1
sg19
I6
sg20
I30
sg21
I0
sg22
I0
sg23
I14
sg24
I0
sbssS'hash'
p117
S'\xb4jM\x0f!\xb8\xfdoL\xe0P\xeb\xc2\x91\xdd\x0f'
p118
sssS'version'
p119
S'3.7.1'
p120
sS'settings'
p121
S'\x98C\xae\x16Y\x0b;\xd3\xaa\x853p\x19*\xf2\xe1'
p122
sS'format'
p123
I1
s.